; Function Attrs: mustprogress uwtable
define internal fastcc noundef i64 @_ZN8facebook5velox4exec12_GLOBAL__N_111singleValueIlEET_RKSt10shared_ptrINS0_10BaseVectorEE(ptr %vector.0.val) unnamed_addr #0 {
entry:
  %0 = tail call noundef ptr @__dynamic_cast(ptr nonnull %vector.0.val, ptr nonnull @_ZTIN8facebook5velox10BaseVectorE, ptr nonnull @_ZTIN8facebook5velox12SimpleVectorIlEE, i64 0) #29
  %cmp.not = icmp eq ptr %0, null
  br i1 %cmp.not, label %if.then, label %if.end

if.then:                                          ; preds = %entry
  tail call void @llvm.trap()
  unreachable

if.end:                                           ; preds = %entry
  %vtable = load ptr, ptr %0, align 8
  %vfn = getelementptr inbounds i8, ptr %vtable, i64 352
  %1 = load ptr, ptr %vfn, align 8
  %call2 = tail call noundef i64 %1(ptr noundef nonnull align 8 dereferenceable(144) %0, i32 noundef 0)
  ret i64 %call2
}